Archive member included to satisfy reference by file (symbol)

./../IO/./out/lib/io.lib(io.o)
                              ./out/bin/main.obj (_close)
./../IO/./out/lib/io.lib(scpdos.lib)
                              ./../IO/./out/lib/io.lib(io.o) (GetLastError)

Memory Configuration

Name             Origin             Length             Attributes
*default*        0x0000000000000000 0xffffffffffffffff

Linker script and memory map

LOAD ./../CRT0/out/lib/crt0.lib
                0x0000000140000000                __image_base__ = 0x140000000
                0x0000000000000000                __dll__ = 0x0
                0x0000000140000000                __ImageBase = 0x140000000
                0x0000000000001000                __section_alignment__ = 0x1000
                0x0000000000000200                __file_alignment__ = 0x200
                0x0000000000000004                __major_os_version__ = 0x4
                0x0000000000000000                __minor_os_version__ = 0x0
                0x0000000000000000                __major_image_version__ = 0x0
                0x0000000000000000                __minor_image_version__ = 0x0
                0x0000000000000005                __major_subsystem_version__ = 0x5
                0x0000000000000002                __minor_subsystem_version__ = 0x2
                0x0000000000000003                __subsystem__ = 0x3
                0x0000000000200000                __size_of_stack_reserve__ = 0x200000
                0x0000000000001000                __size_of_stack_commit__ = 0x1000
                0x0000000000100000                __size_of_heap_reserve__ = 0x100000
                0x0000000000001000                __size_of_heap_commit__ = 0x1000
                0x0000000000000000                __loader_flags__ = 0x0
                0x0000000000000160                __dll_characteristics__ = 0x160
                0x0000000140001000                . = (__ImageBase + 0x1000)

.text           0x0000000140001000     0x1600 load address 0x0000000000001000
 *(.text)
 .text          0x0000000140001000      0x150 ./../CRT0/out/lib/crt0.lib
                0x0000000140001000                __start__
                0x000000014000114f                __main
 .text          0x0000000140001150      0x5d0 ./out/bin/main.obj
                0x0000000140001150                main
                0x000000014000145f                printErrorMsg
                0x0000000140001504                openFile
                0x0000000140001527                closeFile
                0x0000000140001542                readFile
                0x000000014000156f                writeFile
                0x000000014000159c                writeCon
                0x00000001400015d5                scanChar
                0x0000000140001617                strlen
                0x0000000140001649                writeByteAtCursor
                0x00000001400016c0                writeDwordAtCursor
 .text          0x0000000140001720      0x330 ./../IO/./out/lib/io.lib(io.o)
                0x0000000140001720                _close
                0x000000014000173e                _commit
                0x000000014000175c                _creat
                0x0000000140001788                _dup
                0x00000001400017d4                _dup2
                0x0000000140001819                _eof
                0x0000000140001895                _lseek
                0x00000001400018ec                _open
                0x0000000140001916                _read
                0x000000014000197c                _tell
                0x00000001400019a5                _umask
                0x00000001400019d0                _write
                0x0000000140001a36                _get_io_error
 .text          0x0000000140001a50      0xbb0 ./../IO/./out/lib/io.lib(scpdos.lib)
                0x0000000140001a50                SetInterruptVector
                0x0000000140001a65                GetInterruptVector
                0x0000000140001a7b                SetDiskVerifyState
                0x0000000140001a89                ClearDiskVerifyState
                0x0000000140001a97                GetDOSVersion
                0x0000000140001aa5                GetCtrlBreakState
                0x0000000140001ab6                SetCtrlBreakState
                0x0000000140001ac9                __getErrorInformation
                0x0000000140001afe                GetExtendedLastError
                0x0000000140001b5b                GetLastError
                0x0000000140001b95                GetDefaultDiskDPBPointer
                0x0000000140001bb6                GetDPBPointer
                0x0000000140001be4                SetCurrentProcessId
                0x0000000140001bfa                GetCurrentProcessId
                0x0000000140001c0d                GetPointerToDosSysVars
                0x0000000140001c20                GenerateDPB
                0x0000000140001c40                GeneratePartialPSP
                0x0000000140001c55                GenerateNewPSP
                0x0000000140001c72                GetPtrToInDOSFlag
                0x0000000140001c85                GetSwitchChar
                0x0000000140001c96                SetSwitchChar
                0x0000000140001cab                __setDTA
                0x0000000140001cc0                __getDTA
                0x0000000140001cd3                ParseFileName
                0x0000000140001cfa                CreateDirectory
                0x0000000140001d19                DeleteDirectory
                0x0000000140001d38                ChangeCurrentDirectory
                0x0000000140001d57                CreateFile
                0x0000000140001d77                OpenFile
                0x0000000140001da7                CloseFile
                0x0000000140001dca                ReadFile
                0x0000000140001e00                WriteFile
                0x0000000140001e36                DeleteFile
                0x0000000140001e58                SetFilePointer
                0x0000000140001e79                SetFilePointerL
                0x0000000140001ea7                GetFileAttributes
                0x0000000140001ec4                SetFileAttributes
                0x0000000140001ee4                DuplicateHandle
                0x0000000140001f0c                ForceDuplicateHandle
                0x0000000140001f35                GetCurrentDirectory
                0x0000000140001f60                __FindFirst
                0x0000000140001f8b                FindFirstFile
                0x0000000140001fda                __FindNext
                0x0000000140001ff2                FindNextFile
                0x0000000140002030                FindClose
                0x000000014000203f                RenameFile
                0x0000000140002067                GetFileDateAndTime
                0x0000000140002099                SetFileDateAndTime
                0x00000001400020c1                CreateTemporaryFile
                0x00000001400020e1                CreateUniqueFile
                0x0000000140002101                GetFQFileName
                0x000000014000212b                FlushFile
                0x000000014000214a                ExecProcess
                0x0000000140002172                LoadProcess
                0x000000014000219a                LoadOverlay
                0x00000001400021c2                ExitProcess
                0x00000001400021d7                ExitProcessAndStayResidentP
                0x00000001400021ef                ExitProcessAndStayResidentB
                0x00000001400021fd                GetExitCodeProcess
                0x000000014000220b                __AllocateMemory
                0x0000000140002226                __FreeMemory
                0x0000000140002245                __ReallocateMemory
                0x000000014000226b                VirtualAllocate
                0x0000000140002289                VirtualFree
                0x00000001400022a7                VirtualReallocate
                0x00000001400022cd                PhysicalAllocate
                0x00000001400022eb                PhysicalFree
                0x0000000140002309                PhysicalReallocate
                0x000000014000232f                GetMemoryAllocationStrategy
                0x000000014000233d                SetMemoryAllocationStrategy
                0x000000014000235d                GetChar
                0x000000014000236e                PutChar
                0x0000000140002384                AuxInput
                0x0000000140002395                AuxOutput
                0x00000001400023ab                PrnOutput
                0x00000001400023c1                DirectConInAsync
                0x00000001400023e6                DirectConOutAsync
                0x0000000140002401                DirectConIn
                0x0000000140002412                ConInput
                0x0000000140002423                __WriteString
                0x0000000140002441                WriteString
                0x00000001400024a1                __GetBufferedInput
                0x00000001400024b6                GetBufferedInput
                0x00000001400024f7                GetConInputStatus
                0x0000000140002507                ClearInputBuffer
                0x0000000140002515                GetDate
                0x000000014000254a                SetDate
                0x0000000140002570                GetTime
                0x00000001400025a4                SetTime
                0x00000001400025dc                GetCountryInformation

.rdata          0x0000000140003000      0x200 load address 0x0000000000003000
 .rdata         0x0000000140003000      0x1a0 ./out/bin/main.obj
 .rdata$zzz     0x00000001400031a0       0x20 ./out/bin/main.obj
 .rdata$zzz     0x00000001400031c0       0x20 ./../IO/./out/lib/io.lib(io.o)
 .rdata$zzz     0x00000001400031e0       0x20 ./../IO/./out/lib/io.lib(scpdos.lib)

.xdata          0x0000000140004000      0x600 load address 0x0000000000004000
 .xdata         0x0000000140004000       0x84 ./out/bin/main.obj
 .xdata         0x0000000140004084       0x9c ./../IO/./out/lib/io.lib(io.o)
 .xdata         0x0000000140004120      0x300 ./../IO/./out/lib/io.lib(scpdos.lib)

.pdata          0x0000000140005000      0x600 load address 0x0000000000005000
 .pdata         0x0000000140005000       0x84 ./out/bin/main.obj
 .pdata         0x0000000140005084       0x9c ./../IO/./out/lib/io.lib(io.o)
 .pdata         0x0000000140005120      0x438 ./../IO/./out/lib/io.lib(scpdos.lib)

.data           0x0000000140005560      0x200 load address 0x0000000000005560
 *(.data)
 .data          0x0000000140005560       0x10 ./out/bin/main.obj
                0x0000000140005560                paramString
 .data          0x0000000140005570        0x0 ./../IO/./out/lib/io.lib(io.o)
 .data          0x0000000140005570        0x0 ./../IO/./out/lib/io.lib(scpdos.lib)

.reloc          0x0000000140006000      0x200 load address 0x0000000000006000
 .reloc         0x0000000140006000       0x18 dll stuff

.rodata
 *(.rodata)

.bss            0x0000000140006020      0x150 load address 0x0000000000006020
                0x0000000140006020                _BSS_START_ = .
 *(.bss)
 .bss           0x0000000140006020      0x120 ./out/bin/main.obj
                0x0000000140006020                switchFlags
                0x0000000140006040                buffer1
                0x00000001400060c0                buffer2
 .bss           0x0000000140006140       0x10 ./../IO/./out/lib/io.lib(io.o)
                0x0000000140006140                umask
 .bss           0x0000000140006150       0x20 ./../IO/./out/lib/io.lib(scpdos.lib)
                0x0000000140006150                _env
                0x0000000140006158                _argc
                0x0000000140006160                _argv
 *(COMMON)
 *(.bss*)
 *(.stack)
                0x0000000140006170                _BSS_END_ = .
LOAD ./out/bin/main.obj
LOAD ./../IO/./out/lib/io.lib
OUTPUT(./out/bin/fc.exe pei-x86-64)
LOAD dll stuff
